target datalayout = "e-m:e-p270:32:32-p271:32:32-p272:64:64-i64:64-i128:128-f80:128-n8:16:32:64-S128"
target triple = "x86_64-pc-linux-gnu"

%struct.grpc_arg_pointer_vtable = type { ptr, ptr, ptr }
%struct.grpc_arg = type { i32, ptr, %"union.(anonymous struct)::grpc_arg_value" }
%"union.(anonymous struct)::grpc_arg_value" = type { %"struct.(anonymous struct)::grpc_arg_value::grpc_arg_pointer" }
%"struct.(anonymous struct)::grpc_arg_value::grpc_arg_pointer" = type { ptr, ptr }
%struct.grpc_channel_args = type { i64, ptr }

@.str.3 = private unnamed_addr constant [124 x i8] c"generated/home/dtcxzyw/WorkSpace/Projects/compilers/llvm-opt-benchmark/bench/grpc/grpc/src/core/lib/channel/channel_args.cc\00", align 1
@.str.20 = private unnamed_addr constant [9 x i8] c"return 0\00", align 1

; Function Attrs: mustprogress nounwind uwtable
define linkonce_odr noundef i32 @_ZN9grpc_core12QsortCompareIPK23grpc_arg_pointer_vtableEEiRKT_S6_(ptr noundef nonnull align 8 dereferenceable(8) %0, ptr noundef nonnull align 8 dereferenceable(8) %1) #6 comdat {
  %3 = alloca i32, align 4
  %4 = alloca ptr, align 8
  %5 = alloca ptr, align 8
  store ptr %0, ptr %4, align 8, !tbaa !203
  store ptr %1, ptr %5, align 8, !tbaa !203
  %6 = load ptr, ptr %4, align 8, !tbaa !203
  %7 = load ptr, ptr %6, align 8, !tbaa !9
  %8 = load ptr, ptr %5, align 8, !tbaa !203
  %9 = load ptr, ptr %8, align 8, !tbaa !9
  %10 = icmp ult ptr %7, %9
  br i1 %10, label %11, label %12

11:                                               ; preds = %2
  store i32 -1, ptr %3, align 4
  br label %20

12:                                               ; preds = %2
  %13 = load ptr, ptr %5, align 8, !tbaa !203
  %14 = load ptr, ptr %13, align 8, !tbaa !9
  %15 = load ptr, ptr %4, align 8, !tbaa !203
  %16 = load ptr, ptr %15, align 8, !tbaa !9
  %17 = icmp ult ptr %14, %16
  br i1 %17, label %18, label %19

18:                                               ; preds = %12
  store i32 1, ptr %3, align 4
  br label %20

19:                                               ; preds = %12
  store i32 0, ptr %3, align 4
  br label %20

20:                                               ; preds = %19, %18, %11
  %21 = load i32, ptr %3, align 4
  ret i32 %21
}

; Function Attrs: mustprogress nounwind uwtable
define linkonce_odr noundef i32 @_ZN9grpc_core12QsortCompareIPvEEiRKT_S4_(ptr noundef nonnull align 8 dereferenceable(8) %0, ptr noundef nonnull align 8 dereferenceable(8) %1) #6 comdat {
  %3 = alloca i32, align 4
  %4 = alloca ptr, align 8
  %5 = alloca ptr, align 8
  store ptr %0, ptr %4, align 8, !tbaa !101
  store ptr %1, ptr %5, align 8, !tbaa !101
  %6 = load ptr, ptr %4, align 8, !tbaa !101
  %7 = load ptr, ptr %6, align 8, !tbaa !3
  %8 = load ptr, ptr %5, align 8, !tbaa !101
  %9 = load ptr, ptr %8, align 8, !tbaa !3
  %10 = icmp ult ptr %7, %9
  br i1 %10, label %11, label %12

11:                                               ; preds = %2
  store i32 -1, ptr %3, align 4
  br label %20

12:                                               ; preds = %2
  %13 = load ptr, ptr %5, align 8, !tbaa !101
  %14 = load ptr, ptr %13, align 8, !tbaa !3
  %15 = load ptr, ptr %4, align 8, !tbaa !101
  %16 = load ptr, ptr %15, align 8, !tbaa !3
  %17 = icmp ult ptr %14, %16
  br i1 %17, label %18, label %19

18:                                               ; preds = %12
  store i32 1, ptr %3, align 4
  br label %20

19:                                               ; preds = %12
  store i32 0, ptr %3, align 4
  br label %20

20:                                               ; preds = %19, %18, %11
  %21 = load i32, ptr %3, align 4
  ret i32 %21
}

; Function Attrs: inlinehint mustprogress uwtable
define linkonce_odr noundef i32 @_ZN9grpc_core19channel_args_detail14PointerCompareEPvPK23grpc_arg_pointer_vtableS1_S4_(ptr noundef %0, ptr noundef %1, ptr noundef %2, ptr noundef %3) #4 comdat {
  %5 = alloca i32, align 4
  %6 = alloca ptr, align 8
  %7 = alloca ptr, align 8
  %8 = alloca ptr, align 8
  %9 = alloca ptr, align 8
  %10 = alloca i32, align 4
  %11 = alloca i32, align 4
  store ptr %0, ptr %6, align 8, !tbaa !3
  store ptr %1, ptr %7, align 8, !tbaa !9
  store ptr %2, ptr %8, align 8, !tbaa !3
  store ptr %3, ptr %9, align 8, !tbaa !9
  call void @llvm.lifetime.start.p0(i64 4, ptr %10) #3
  %12 = call noundef i32 @_ZN9grpc_core12QsortCompareIPvEEiRKT_S4_(ptr noundef nonnull align 8 dereferenceable(8) %6, ptr noundef nonnull align 8 dereferenceable(8) %8)
  store i32 %12, ptr %10, align 4, !tbaa !31
  %13 = load i32, ptr %10, align 4, !tbaa !31
  %14 = icmp eq i32 %13, 0
  br i1 %14, label %15, label %16

15:                                               ; preds = %4
  store i32 0, ptr %5, align 4
  store i32 1, ptr %11, align 4
  br label %29

16:                                               ; preds = %4
  %17 = call noundef i32 @_ZN9grpc_core12QsortCompareIPK23grpc_arg_pointer_vtableEEiRKT_S6_(ptr noundef nonnull align 8 dereferenceable(8) %7, ptr noundef nonnull align 8 dereferenceable(8) %9)
  store i32 %17, ptr %10, align 4, !tbaa !31
  %18 = load i32, ptr %10, align 4, !tbaa !31
  %19 = icmp ne i32 %18, 0
  br i1 %19, label %20, label %22

20:                                               ; preds = %16
  %21 = load i32, ptr %10, align 4, !tbaa !31
  store i32 %21, ptr %5, align 4
  store i32 1, ptr %11, align 4
  br label %29

22:                                               ; preds = %16
  %23 = load ptr, ptr %7, align 8, !tbaa !9
  %24 = getelementptr inbounds nuw %struct.grpc_arg_pointer_vtable, ptr %23, i32 0, i32 2
  %25 = load ptr, ptr %24, align 8, !tbaa !202
  %26 = load ptr, ptr %6, align 8, !tbaa !3
  %27 = load ptr, ptr %8, align 8, !tbaa !3
  %28 = call noundef i32 %25(ptr noundef %26, ptr noundef %27)
  store i32 %28, ptr %5, align 4
  store i32 1, ptr %11, align 4
  br label %29

29:                                               ; preds = %22, %20, %15
  call void @llvm.lifetime.end.p0(i64 4, ptr %10) #3
  %30 = load i32, ptr %5, align 4
  ret i32 %30
}

; Function Attrs: mustprogress nounwind uwtable
define linkonce_odr noundef i32 @_ZN9grpc_core12QsortCompareIiEEiRKT_S3_(ptr noundef nonnull align 4 dereferenceable(4) %0, ptr noundef nonnull align 4 dereferenceable(4) %1) #6 comdat {
  %3 = alloca i32, align 4
  %4 = alloca ptr, align 8
  %5 = alloca ptr, align 8
  store ptr %0, ptr %4, align 8, !tbaa !299
  store ptr %1, ptr %5, align 8, !tbaa !299
  %6 = load ptr, ptr %4, align 8, !tbaa !299
  %7 = load i32, ptr %6, align 4, !tbaa !31
  %8 = load ptr, ptr %5, align 8, !tbaa !299
  %9 = load i32, ptr %8, align 4, !tbaa !31
  %10 = icmp slt i32 %7, %9
  br i1 %10, label %11, label %12

11:                                               ; preds = %2
  store i32 -1, ptr %3, align 4
  br label %20

12:                                               ; preds = %2
  %13 = load ptr, ptr %5, align 8, !tbaa !299
  %14 = load i32, ptr %13, align 4, !tbaa !31
  %15 = load ptr, ptr %4, align 8, !tbaa !299
  %16 = load i32, ptr %15, align 4, !tbaa !31
  %17 = icmp slt i32 %14, %16
  br i1 %17, label %18, label %19

18:                                               ; preds = %12
  store i32 1, ptr %3, align 4
  br label %20

19:                                               ; preds = %12
  store i32 0, ptr %3, align 4
  br label %20

20:                                               ; preds = %19, %18, %11
  %21 = load i32, ptr %3, align 4
  ret i32 %21
}

; Function Attrs: mustprogress nounwind uwtable
define linkonce_odr noundef i32 @_ZN9grpc_core12QsortCompareI13grpc_arg_typeEEiRKT_S4_(ptr noundef nonnull align 4 dereferenceable(4) %0, ptr noundef nonnull align 4 dereferenceable(4) %1) #6 comdat {
  %3 = alloca i32, align 4
  %4 = alloca ptr, align 8
  %5 = alloca ptr, align 8
  store ptr %0, ptr %4, align 8, !tbaa !3
  store ptr %1, ptr %5, align 8, !tbaa !3
  %6 = load ptr, ptr %4, align 8, !tbaa !3
  %7 = load i32, ptr %6, align 4, !tbaa !52
  %8 = load ptr, ptr %5, align 8, !tbaa !3
  %9 = load i32, ptr %8, align 4, !tbaa !52
  %10 = icmp slt i32 %7, %9
  br i1 %10, label %11, label %12

11:                                               ; preds = %2
  store i32 -1, ptr %3, align 4
  br label %20

12:                                               ; preds = %2
  %13 = load ptr, ptr %5, align 8, !tbaa !3
  %14 = load i32, ptr %13, align 4, !tbaa !52
  %15 = load ptr, ptr %4, align 8, !tbaa !3
  %16 = load i32, ptr %15, align 4, !tbaa !52
  %17 = icmp slt i32 %14, %16
  br i1 %17, label %18, label %19

18:                                               ; preds = %12
  store i32 1, ptr %3, align 4
  br label %20

19:                                               ; preds = %12
  store i32 0, ptr %3, align 4
  br label %20

20:                                               ; preds = %19, %18, %11
  %21 = load i32, ptr %3, align 4
  ret i32 %21
}

; Function Attrs: mustprogress uwtable
define internal noundef i32 @_ZL7cmp_argPK8grpc_argS1_(ptr noundef %0, ptr noundef %1) #5 {
  %3 = alloca i32, align 4
  %4 = alloca ptr, align 8
  %5 = alloca ptr, align 8
  %6 = alloca i32, align 4
  %7 = alloca i32, align 4
  store ptr %0, ptr %4, align 8, !tbaa !3
  store ptr %1, ptr %5, align 8, !tbaa !3
  call void @llvm.lifetime.start.p0(i64 4, ptr %6) #3
  %8 = load ptr, ptr %4, align 8, !tbaa !3
  %9 = getelementptr inbounds nuw %struct.grpc_arg, ptr %8, i32 0, i32 0
  %10 = load ptr, ptr %5, align 8, !tbaa !3
  %11 = getelementptr inbounds nuw %struct.grpc_arg, ptr %10, i32 0, i32 0
  %12 = call noundef i32 @_ZN9grpc_core12QsortCompareI13grpc_arg_typeEEiRKT_S4_(ptr noundef nonnull align 4 dereferenceable(4) %9, ptr noundef nonnull align 4 dereferenceable(4) %11)
  store i32 %12, ptr %6, align 4, !tbaa !31
  %13 = load i32, ptr %6, align 4, !tbaa !31
  %14 = icmp ne i32 %13, 0
  br i1 %14, label %15, label %17

15:                                               ; preds = %2
  %16 = load i32, ptr %6, align 4, !tbaa !31
  store i32 %16, ptr %3, align 4
  store i32 1, ptr %7, align 4
  br label %69

17:                                               ; preds = %2
  %18 = load ptr, ptr %4, align 8, !tbaa !3
  %19 = getelementptr inbounds nuw %struct.grpc_arg, ptr %18, i32 0, i32 1
  %20 = load ptr, ptr %19, align 8, !tbaa !45
  %21 = load ptr, ptr %5, align 8, !tbaa !3
  %22 = getelementptr inbounds nuw %struct.grpc_arg, ptr %21, i32 0, i32 1
  %23 = load ptr, ptr %22, align 8, !tbaa !45
  %24 = call i32 @strcmp(ptr noundef %20, ptr noundef %23) #26
  store i32 %24, ptr %6, align 4, !tbaa !31
  %25 = load i32, ptr %6, align 4, !tbaa !31
  %26 = icmp ne i32 %25, 0
  br i1 %26, label %27, label %29

27:                                               ; preds = %17
  %28 = load i32, ptr %6, align 4, !tbaa !31
  store i32 %28, ptr %3, align 4
  store i32 1, ptr %7, align 4
  br label %69

29:                                               ; preds = %17
  %30 = load ptr, ptr %4, align 8, !tbaa !3
  %31 = getelementptr inbounds nuw %struct.grpc_arg, ptr %30, i32 0, i32 0
  %32 = load i32, ptr %31, align 8, !tbaa !42
  switch i32 %32, label %65 [
    i32 0, label %33
    i32 1, label %41
    i32 2, label %47
  ]

33:                                               ; preds = %29
  %34 = load ptr, ptr %4, align 8, !tbaa !3
  %35 = getelementptr inbounds nuw %struct.grpc_arg, ptr %34, i32 0, i32 2
  %36 = load ptr, ptr %35, align 8, !tbaa !46
  %37 = load ptr, ptr %5, align 8, !tbaa !3
  %38 = getelementptr inbounds nuw %struct.grpc_arg, ptr %37, i32 0, i32 2
  %39 = load ptr, ptr %38, align 8, !tbaa !46
  %40 = call i32 @strcmp(ptr noundef %36, ptr noundef %39) #26
  store i32 %40, ptr %3, align 4
  store i32 1, ptr %7, align 4
  br label %69

41:                                               ; preds = %29
  %42 = load ptr, ptr %4, align 8, !tbaa !3
  %43 = getelementptr inbounds nuw %struct.grpc_arg, ptr %42, i32 0, i32 2
  %44 = load ptr, ptr %5, align 8, !tbaa !3
  %45 = getelementptr inbounds nuw %struct.grpc_arg, ptr %44, i32 0, i32 2
  %46 = call noundef i32 @_ZN9grpc_core12QsortCompareIiEEiRKT_S3_(ptr noundef nonnull align 4 dereferenceable(4) %43, ptr noundef nonnull align 4 dereferenceable(4) %45)
  store i32 %46, ptr %3, align 4
  store i32 1, ptr %7, align 4
  br label %69

47:                                               ; preds = %29
  %48 = load ptr, ptr %4, align 8, !tbaa !3
  %49 = getelementptr inbounds nuw %struct.grpc_arg, ptr %48, i32 0, i32 2
  %50 = getelementptr inbounds nuw %"struct.(anonymous struct)::grpc_arg_value::grpc_arg_pointer", ptr %49, i32 0, i32 0
  %51 = load ptr, ptr %50, align 8, !tbaa !46
  %52 = load ptr, ptr %4, align 8, !tbaa !3
  %53 = getelementptr inbounds nuw %struct.grpc_arg, ptr %52, i32 0, i32 2
  %54 = getelementptr inbounds nuw %"struct.(anonymous struct)::grpc_arg_value::grpc_arg_pointer", ptr %53, i32 0, i32 1
  %55 = load ptr, ptr %54, align 8, !tbaa !46
  %56 = load ptr, ptr %5, align 8, !tbaa !3
  %57 = getelementptr inbounds nuw %struct.grpc_arg, ptr %56, i32 0, i32 2
  %58 = getelementptr inbounds nuw %"struct.(anonymous struct)::grpc_arg_value::grpc_arg_pointer", ptr %57, i32 0, i32 0
  %59 = load ptr, ptr %58, align 8, !tbaa !46
  %60 = load ptr, ptr %5, align 8, !tbaa !3
  %61 = getelementptr inbounds nuw %struct.grpc_arg, ptr %60, i32 0, i32 2
  %62 = getelementptr inbounds nuw %"struct.(anonymous struct)::grpc_arg_value::grpc_arg_pointer", ptr %61, i32 0, i32 1
  %63 = load ptr, ptr %62, align 8, !tbaa !46
  %64 = call noundef i32 @_ZN9grpc_core19channel_args_detail14PointerCompareEPvPK23grpc_arg_pointer_vtableS1_S4_(ptr noundef %51, ptr noundef %55, ptr noundef %59, ptr noundef %63)
  store i32 %64, ptr %3, align 4
  store i32 1, ptr %7, align 4
  br label %69

65:                                               ; preds = %29
  br label %66

66:                                               ; preds = %65
  call void @gpr_unreachable_code(ptr noundef @.str.20, ptr noundef @.str.3, i32 noundef 473) #25
  unreachable

67:                                               ; No predecessors!
  br label %68

68:                                               ; preds = %67
  unreachable

69:                                               ; preds = %47, %41, %33, %27, %15
  call void @llvm.lifetime.end.p0(i64 4, ptr %6) #3
  %70 = load i32, ptr %3, align 4
  ret i32 %70
}

; Function Attrs: mustprogress nounwind uwtable
define linkonce_odr noundef i32 @_ZN9grpc_core12QsortCompareImEEiRKT_S3_(ptr noundef nonnull align 8 dereferenceable(8) %0, ptr noundef nonnull align 8 dereferenceable(8) %1) #6 comdat {
  %3 = alloca i32, align 4
  %4 = alloca ptr, align 8
  %5 = alloca ptr, align 8
  store ptr %0, ptr %4, align 8, !tbaa !141
  store ptr %1, ptr %5, align 8, !tbaa !141
  %6 = load ptr, ptr %4, align 8, !tbaa !141
  %7 = load i64, ptr %6, align 8, !tbaa !23
  %8 = load ptr, ptr %5, align 8, !tbaa !141
  %9 = load i64, ptr %8, align 8, !tbaa !23
  %10 = icmp ult i64 %7, %9
  br i1 %10, label %11, label %12

11:                                               ; preds = %2
  store i32 -1, ptr %3, align 4
  br label %20

12:                                               ; preds = %2
  %13 = load ptr, ptr %5, align 8, !tbaa !141
  %14 = load i64, ptr %13, align 8, !tbaa !23
  %15 = load ptr, ptr %4, align 8, !tbaa !141
  %16 = load i64, ptr %15, align 8, !tbaa !23
  %17 = icmp ult i64 %14, %16
  br i1 %17, label %18, label %19

18:                                               ; preds = %12
  store i32 1, ptr %3, align 4
  br label %20

19:                                               ; preds = %12
  store i32 0, ptr %3, align 4
  br label %20

20:                                               ; preds = %19, %18, %11
  %21 = load i32, ptr %3, align 4
  ret i32 %21
}

; Function Attrs: mustprogress uwtable
define noundef i32 @_Z25grpc_channel_args_comparePK17grpc_channel_argsS1_(ptr noundef %0, ptr noundef %1) #5 {
  %3 = alloca i32, align 4
  %4 = alloca ptr, align 8
  %5 = alloca ptr, align 8
  %6 = alloca i32, align 4
  %7 = alloca i32, align 4
  %8 = alloca i64, align 8
  store ptr %0, ptr %4, align 8, !tbaa !3
  store ptr %1, ptr %5, align 8, !tbaa !3
  %9 = load ptr, ptr %4, align 8, !tbaa !3
  %10 = icmp eq ptr %9, null
  br i1 %10, label %11, label %15

11:                                               ; preds = %2
  %12 = load ptr, ptr %5, align 8, !tbaa !3
  %13 = icmp eq ptr %12, null
  br i1 %13, label %14, label %15

14:                                               ; preds = %11
  store i32 0, ptr %3, align 4
  br label %67

15:                                               ; preds = %11, %2
  %16 = load ptr, ptr %4, align 8, !tbaa !3
  %17 = icmp eq ptr %16, null
  br i1 %17, label %21, label %18

18:                                               ; preds = %15
  %19 = load ptr, ptr %5, align 8, !tbaa !3
  %20 = icmp eq ptr %19, null
  br i1 %20, label %21, label %25

21:                                               ; preds = %18, %15
  %22 = load ptr, ptr %4, align 8, !tbaa !3
  %23 = icmp eq ptr %22, null
  %24 = select i1 %23, i32 -1, i32 1
  store i32 %24, ptr %3, align 4
  br label %67

25:                                               ; preds = %18
  call void @llvm.lifetime.start.p0(i64 4, ptr %6) #3
  %26 = load ptr, ptr %4, align 8, !tbaa !3
  %27 = getelementptr inbounds nuw %struct.grpc_channel_args, ptr %26, i32 0, i32 0
  %28 = load ptr, ptr %5, align 8, !tbaa !3
  %29 = getelementptr inbounds nuw %struct.grpc_channel_args, ptr %28, i32 0, i32 0
  %30 = call noundef i32 @_ZN9grpc_core12QsortCompareImEEiRKT_S3_(ptr noundef nonnull align 8 dereferenceable(8) %27, ptr noundef nonnull align 8 dereferenceable(8) %29)
  store i32 %30, ptr %6, align 4, !tbaa !31
  %31 = load i32, ptr %6, align 4, !tbaa !31
  %32 = icmp ne i32 %31, 0
  br i1 %32, label %33, label %35

33:                                               ; preds = %25
  %34 = load i32, ptr %6, align 4, !tbaa !31
  store i32 %34, ptr %3, align 4
  store i32 1, ptr %7, align 4
  br label %66

35:                                               ; preds = %25
  call void @llvm.lifetime.start.p0(i64 8, ptr %8) #3
  store i64 0, ptr %8, align 8, !tbaa !23
  br label %36

36:                                               ; preds = %60, %35
  %37 = load i64, ptr %8, align 8, !tbaa !23
  %38 = load ptr, ptr %4, align 8, !tbaa !3
  %39 = getelementptr inbounds nuw %struct.grpc_channel_args, ptr %38, i32 0, i32 0
  %40 = load i64, ptr %39, align 8, !tbaa !48
  %41 = icmp ult i64 %37, %40
  br i1 %41, label %43, label %42

42:                                               ; preds = %36
  store i32 2, ptr %7, align 4
  br label %63

43:                                               ; preds = %36
  %44 = load ptr, ptr %4, align 8, !tbaa !3
  %45 = getelementptr inbounds nuw %struct.grpc_channel_args, ptr %44, i32 0, i32 1
  %46 = load ptr, ptr %45, align 8, !tbaa !50
  %47 = load i64, ptr %8, align 8, !tbaa !23
  %48 = getelementptr inbounds nuw %struct.grpc_arg, ptr %46, i64 %47
  %49 = load ptr, ptr %5, align 8, !tbaa !3
  %50 = getelementptr inbounds nuw %struct.grpc_channel_args, ptr %49, i32 0, i32 1
  %51 = load ptr, ptr %50, align 8, !tbaa !50
  %52 = load i64, ptr %8, align 8, !tbaa !23
  %53 = getelementptr inbounds nuw %struct.grpc_arg, ptr %51, i64 %52
  %54 = call noundef i32 @_ZL7cmp_argPK8grpc_argS1_(ptr noundef %48, ptr noundef %53)
  store i32 %54, ptr %6, align 4, !tbaa !31
  %55 = load i32, ptr %6, align 4, !tbaa !31
  %56 = icmp ne i32 %55, 0
  br i1 %56, label %57, label %59

57:                                               ; preds = %43
  %58 = load i32, ptr %6, align 4, !tbaa !31
  store i32 %58, ptr %3, align 4
  store i32 1, ptr %7, align 4
  br label %63

59:                                               ; preds = %43
  br label %60

60:                                               ; preds = %59
  %61 = load i64, ptr %8, align 8, !tbaa !23
  %62 = add i64 %61, 1
  store i64 %62, ptr %8, align 8, !tbaa !23
  br label %36, !llvm.loop !140

63:                                               ; preds = %57, %42
  call void @llvm.lifetime.end.p0(i64 8, ptr %8) #3
  %64 = load i32, ptr %7, align 4
  switch i32 %64, label %66 [
    i32 2, label %65
  ]

65:                                               ; preds = %63
  store i32 0, ptr %3, align 4
  store i32 1, ptr %7, align 4
  br label %66

66:                                               ; preds = %65, %63, %33
  call void @llvm.lifetime.end.p0(i64 4, ptr %6) #3
  br label %67

67:                                               ; preds = %66, %21, %14
  %68 = load i32, ptr %3, align 4
  ret i32 %68
}