; Function Attrs: mustprogress uwtable
define noundef i32 @_Z25grpc_channel_args_comparePK17grpc_channel_argsS1_(ptr noundef readonly %0, ptr noundef readonly %1) local_unnamed_addr #9 {
  %3 = icmp eq ptr %0, null
  %4 = icmp eq ptr %1, null
  %or.cond = and i1 %3, %4
  br i1 %or.cond, label %_ZL7cmp_argPK8grpc_argS1_.exit.thread33, label %5

5:                                                ; preds = %2
  %or.cond3 = or i1 %3, %4
  br i1 %or.cond3, label %6, label %8

6:                                                ; preds = %5
  %7 = select i1 %3, i32 -1, i32 1
  br label %_ZL7cmp_argPK8grpc_argS1_.exit.thread33

8:                                                ; preds = %5
  %9 = load i64, ptr %0, align 8, !tbaa !29
  %10 = load i64, ptr %1, align 8, !tbaa !29
  %.0.i = tail call noundef i32 @llvm.ucmp.i32.i64(i64 %9, i64 %10)
  %.not = icmp eq i64 %9, %10
  br i1 %.not, label %.preheader, label %_ZL7cmp_argPK8grpc_argS1_.exit.thread33

.preheader:                                       ; preds = %8
  %.not2936.not = icmp eq i64 %9, 0
  br i1 %.not2936.not, label %_ZL7cmp_argPK8grpc_argS1_.exit.thread33, label %.lr.ph

.lr.ph:                                           ; preds = %.preheader
  %11 = getelementptr inbounds nuw i8, ptr %0, i64 8
  %12 = getelementptr inbounds nuw i8, ptr %1, i64 8
  br label %13

13:                                               ; preds = %.lr.ph, %_ZL7cmp_argPK8grpc_argS1_.exit.thread
  %14 = phi i64 [ %9, %.lr.ph ], [ %57, %_ZL7cmp_argPK8grpc_argS1_.exit.thread ]
  %.037 = phi i64 [ 0, %.lr.ph ], [ %58, %_ZL7cmp_argPK8grpc_argS1_.exit.thread ]
  %15 = load ptr, ptr %11, align 8, !tbaa !53
  %16 = getelementptr inbounds nuw %struct.grpc_arg, ptr %15, i64 %.037
  %17 = load ptr, ptr %12, align 8, !tbaa !53
  %18 = getelementptr inbounds nuw %struct.grpc_arg, ptr %17, i64 %.037
  %19 = load i32, ptr %16, align 4, !tbaa !170
  %20 = load i32, ptr %18, align 4, !tbaa !170
  %.0.i.i = tail call noundef i32 @llvm.scmp.i32.i32(i32 %19, i32 %20)
  %.not.i = icmp eq i32 %19, %20
  br i1 %.not.i, label %21, label %_ZL7cmp_argPK8grpc_argS1_.exit

21:                                               ; preds = %13
  %22 = getelementptr inbounds nuw i8, ptr %16, i64 8
  %23 = load ptr, ptr %22, align 8, !tbaa !40
  %24 = getelementptr inbounds nuw i8, ptr %18, i64 8
  %25 = load ptr, ptr %24, align 8, !tbaa !40
  %26 = tail call i32 @strcmp(ptr noundef nonnull dereferenceable(1) %23, ptr noundef nonnull dereferenceable(1) %25) #44
  %.not19.i = icmp eq i32 %26, 0
  br i1 %.not19.i, label %27, label %_ZL7cmp_argPK8grpc_argS1_.exit.thread33

27:                                               ; preds = %21
  switch i32 %19, label %56 [
    i32 0, label %28
    i32 1, label %34
    i32 2, label %39
  ]

28:                                               ; preds = %27
  %29 = getelementptr inbounds nuw i8, ptr %16, i64 16
  %30 = load ptr, ptr %29, align 8, !tbaa !41
  %31 = getelementptr inbounds nuw i8, ptr %18, i64 16
  %32 = load ptr, ptr %31, align 8, !tbaa !41
  %33 = tail call i32 @strcmp(ptr noundef nonnull dereferenceable(1) %30, ptr noundef nonnull dereferenceable(1) %32) #44
  br label %_ZL7cmp_argPK8grpc_argS1_.exit

34:                                               ; preds = %27
  %35 = getelementptr inbounds nuw i8, ptr %16, i64 16
  %36 = getelementptr inbounds nuw i8, ptr %18, i64 16
  %37 = load i32, ptr %35, align 4, !tbaa !35
  %38 = load i32, ptr %36, align 4, !tbaa !35
  %.0.i20.i = tail call noundef i32 @llvm.scmp.i32.i32(i32 %37, i32 %38)
  br label %_ZL7cmp_argPK8grpc_argS1_.exit

39:                                               ; preds = %27
  %40 = getelementptr inbounds nuw i8, ptr %16, i64 16
  %41 = load ptr, ptr %40, align 8, !tbaa !41
  %42 = getelementptr inbounds nuw i8, ptr %16, i64 24
  %43 = load ptr, ptr %42, align 8, !tbaa !41
  %44 = getelementptr inbounds nuw i8, ptr %18, i64 16
  %45 = load ptr, ptr %44, align 8, !tbaa !41
  %46 = icmp eq ptr %45, %41
  br i1 %46, label %_ZL7cmp_argPK8grpc_argS1_.exit.thread, label %47

47:                                               ; preds = %39
  %48 = getelementptr inbounds nuw i8, ptr %18, i64 24
  %49 = load ptr, ptr %48, align 8, !tbaa !41
  %50 = icmp ult ptr %43, %49
  %51 = icmp ult ptr %49, %43
  %..i5.i.i = zext i1 %51 to i32
  %.0.i6.i.i = select i1 %50, i32 -1, i32 %..i5.i.i
  %.not.i.i = icmp eq i32 %.0.i6.i.i, 0
  br i1 %.not.i.i, label %52, label %_ZL7cmp_argPK8grpc_argS1_.exit

52:                                               ; preds = %47
  %53 = getelementptr inbounds nuw i8, ptr %43, i64 16
  %54 = load ptr, ptr %53, align 8, !tbaa !72
  %55 = tail call noundef i32 %54(ptr noundef %41, ptr noundef %45)
  br label %_ZL7cmp_argPK8grpc_argS1_.exit

56:                                               ; preds = %27
  tail call void @gpr_unreachable_code(ptr noundef nonnull @.str.20, ptr noundef nonnull @.str.3, i32 noundef 473) #41
  unreachable

_ZL7cmp_argPK8grpc_argS1_.exit:                   ; preds = %13, %28, %34, %47, %52
  %.0.i30 = phi i32 [ %.0.i20.i, %34 ], [ %33, %28 ], [ %.0.i.i, %13 ], [ %55, %52 ], [ %.0.i6.i.i, %47 ]
  %.not28 = icmp eq i32 %.0.i30, 0
  br i1 %.not28, label %_ZL7cmp_argPK8grpc_argS1_.exit._ZL7cmp_argPK8grpc_argS1_.exit.thread_crit_edge, label %_ZL7cmp_argPK8grpc_argS1_.exit.thread33

_ZL7cmp_argPK8grpc_argS1_.exit._ZL7cmp_argPK8grpc_argS1_.exit.thread_crit_edge: ; preds = %_ZL7cmp_argPK8grpc_argS1_.exit
  %.pre = load i64, ptr %0, align 8, !tbaa !51
  br label %_ZL7cmp_argPK8grpc_argS1_.exit.thread

_ZL7cmp_argPK8grpc_argS1_.exit.thread:            ; preds = %_ZL7cmp_argPK8grpc_argS1_.exit._ZL7cmp_argPK8grpc_argS1_.exit.thread_crit_edge, %39
  %57 = phi i64 [ %.pre, %_ZL7cmp_argPK8grpc_argS1_.exit._ZL7cmp_argPK8grpc_argS1_.exit.thread_crit_edge ], [ %14, %39 ]
  %58 = add nuw i64 %.037, 1
  %.not29 = icmp ult i64 %58, %57
  br i1 %.not29, label %13, label %_ZL7cmp_argPK8grpc_argS1_.exit.thread33, !llvm.loop !186

_ZL7cmp_argPK8grpc_argS1_.exit.thread33:          ; preds = %21, %_ZL7cmp_argPK8grpc_argS1_.exit, %_ZL7cmp_argPK8grpc_argS1_.exit.thread, %.preheader, %8, %2, %6
  %.023 = phi i32 [ %7, %6 ], [ 0, %2 ], [ %.0.i, %8 ], [ 0, %.preheader ], [ %26, %21 ], [ %.0.i30, %_ZL7cmp_argPK8grpc_argS1_.exit ], [ 0, %_ZL7cmp_argPK8grpc_argS1_.exit.thread ]
  ret i32 %.023
}